; Function Attrs: mustprogress nounwind uwtable
define internal void @"_ZNSt17_Function_handlerIFvRN4llvm19MachineInstrBuilderEEZNK12_GLOBAL__N_126AArch64InstructionSelector21selectAddrModeIndexedERNS0_14MachineOperandEjE3$_0E9_M_invokeERKSt9_Any_dataS2_"(ptr nocapture noundef nonnull readonly align 8 dereferenceable(16) %0, ptr nocapture noundef nonnull readonly align 8 dereferenceable(16) %1) #0 align 2 {
  %.val = load ptr, ptr %0, align 8
  %.val2 = load ptr, ptr %1, align 8
  %3 = getelementptr inbounds i8, ptr %1, i64 8
  %.val3 = load ptr, ptr %3, align 8
  %4 = getelementptr i8, ptr %.val, i64 32
  %.val.val = load ptr, ptr %4, align 8
  %5 = getelementptr inbounds i8, ptr %.val.val, i64 32
  tail call void @_ZN4llvm12MachineInstr10addOperandERNS_15MachineFunctionERKNS_14MachineOperandE(ptr noundef nonnull align 8 dereferenceable(70) %.val3, ptr noundef nonnull align 8 dereferenceable(1041) %.val2, ptr noundef nonnull align 8 dereferenceable(32) %5) #24
  ret void
}